; Function Attrs: nounwind uwtable
define void @pmix_hwloc_release_cpuset(ptr noundef captures(address_is_null) %0, i64 noundef %1) local_unnamed_addr #0 {
  %3 = icmp eq ptr %0, null
  br i1 %3, label %16, label %.preheader

.preheader:                                       ; preds = %2
  %.not = icmp eq i64 %1, 0
  br i1 %.not, label %._crit_edge, label %.lr.ph

.lr.ph:                                           ; preds = %.preheader, %pmix_hwloc_destruct_cpuset.exit
  %.07 = phi i64 [ %15, %pmix_hwloc_destruct_cpuset.exit ], [ 0, %.preheader ]
  %4 = getelementptr inbounds nuw %struct.pmix_cpuset_t, ptr %0, i64 %.07
  %5 = load ptr, ptr %4, align 8, !tbaa !21
  %6 = icmp eq ptr %5, null
  br i1 %6, label %pmix_hwloc_destruct_cpuset.exit, label %7

7:                                                ; preds = %.lr.ph
  %8 = tail call i32 @strncasecmp(ptr noundef nonnull %5, ptr noundef nonnull @.str, i64 noundef 5) #8
  %.not.i = icmp eq i32 %8, 0
  br i1 %.not.i, label %9, label %pmix_hwloc_destruct_cpuset.exit

9:                                                ; preds = %7
  %10 = getelementptr inbounds nuw i8, ptr %4, i64 8
  %11 = load ptr, ptr %10, align 8, !tbaa !23
  %.not10.i = icmp eq ptr %11, null
  br i1 %.not10.i, label %13, label %12

12:                                               ; preds = %9
  tail call void @hwloc_bitmap_free(ptr noundef nonnull %11) #7
  store ptr null, ptr %10, align 8, !tbaa !23
  %.pre.i = load ptr, ptr %4, align 8, !tbaa !21
  br label %13

13:                                               ; preds = %12, %9
  %14 = phi ptr [ %.pre.i, %12 ], [ %5, %9 ]
  tail call void @free(ptr noundef %14) #7
  store ptr null, ptr %4, align 8, !tbaa !21
  br label %pmix_hwloc_destruct_cpuset.exit

pmix_hwloc_destruct_cpuset.exit:                  ; preds = %.lr.ph, %7, %13
  %15 = add nuw i64 %.07, 1
  %exitcond.not = icmp eq i64 %15, %1
  br i1 %exitcond.not, label %._crit_edge, label %.lr.ph, !llvm.loop !26

._crit_edge:                                      ; preds = %pmix_hwloc_destruct_cpuset.exit, %.preheader
  tail call void @free(ptr noundef nonnull %0) #7
  br label %16

16:                                               ; preds = %2, %._crit_edge
  ret void
}